; Function Attrs: mustprogress uwtable
define dso_local void @_ZN14cmConfigureLog10BeginEventERKNSt7__cxx1112basic_stringIcSt11char_traitsIcESaIcEEERK10cmMakefile(ptr noundef nonnull align 8 dereferenceable(584) %0, ptr noundef nonnull align 8 dereferenceable(32) %1, ptr noundef nonnull align 8 dereferenceable(2880) %2) local_unnamed_addr #5 align 2 {
  %4 = alloca i8, align 1
  tail call void @_ZN14cmConfigureLog10EnsureInitEv(ptr noundef nonnull align 8 dereferenceable(584) %0)
  %5 = getelementptr inbounds nuw i8, ptr %0, i64 568
  %6 = load i32, ptr %5, align 8, !tbaa !20
  %.not.i = icmp eq i32 %6, 0
  br i1 %.not.i, label %_ZN14cmConfigureLog9BeginLineEv.exit, label %.lr.ph.i

.lr.ph.i:                                         ; preds = %3
  %7 = getelementptr inbounds nuw i8, ptr %0, i64 56
  br label %8

8:                                                ; preds = %8, %.lr.ph.i
  %.02.i = phi i32 [ 0, %.lr.ph.i ], [ %10, %8 ]
  %9 = tail call noundef nonnull align 8 dereferenceable(8) ptr @_ZSt16__ostream_insertIcSt11char_traitsIcEERSt13basic_ostreamIT_T0_ES6_PKS3_l(ptr noundef nonnull align 8 dereferenceable(8) %7, ptr noundef nonnull @.str.9, i64 noundef 2)
  %10 = add nuw i32 %.02.i, 1
  %11 = load i32, ptr %5, align 8, !tbaa !20
  %12 = icmp ult i32 %10, %11
  br i1 %12, label %8, label %_ZN14cmConfigureLog9BeginLineEv.exit, !llvm.loop !94

_ZN14cmConfigureLog9BeginLineEv.exit:             ; preds = %8, %3
  %13 = getelementptr inbounds nuw i8, ptr %0, i64 56
  call void @llvm.lifetime.start.p0(i64 1, ptr nonnull %4)
  store i8 45, ptr %4, align 1, !tbaa !14
  %14 = load ptr, ptr %13, align 8, !tbaa !52
  %15 = getelementptr i8, ptr %14, i64 -24
  %16 = load i64, ptr %15, align 8
  %17 = getelementptr inbounds i8, ptr %13, i64 %16
  %18 = getelementptr inbounds nuw i8, ptr %17, i64 16
  %19 = load i64, ptr %18, align 8, !tbaa !122
  %.not.i5 = icmp eq i64 %19, 0
  br i1 %.not.i5, label %22, label %20

20:                                               ; preds = %_ZN14cmConfigureLog9BeginLineEv.exit
  %21 = call noundef nonnull align 8 dereferenceable(8) ptr @_ZSt16__ostream_insertIcSt11char_traitsIcEERSt13basic_ostreamIT_T0_ES6_PKS3_l(ptr noundef nonnull align 8 dereferenceable(8) %13, ptr noundef nonnull %4, i64 noundef 1)
  br label %_ZStlsISt11char_traitsIcEERSt13basic_ostreamIcT_ES5_c.exit

22:                                               ; preds = %_ZN14cmConfigureLog9BeginLineEv.exit
  %23 = tail call noundef nonnull align 8 dereferenceable(8) ptr @_ZNSo3putEc(ptr noundef nonnull align 8 dereferenceable(8) %13, i8 noundef signext 45)
  br label %_ZStlsISt11char_traitsIcEERSt13basic_ostreamIcT_ES5_c.exit

_ZStlsISt11char_traitsIcEERSt13basic_ostreamIcT_ES5_c.exit: ; preds = %20, %22
  call void @llvm.lifetime.end.p0(i64 1, ptr nonnull %4)
  %24 = load ptr, ptr %13, align 8, !tbaa !52
  %25 = getelementptr i8, ptr %24, i64 -24
  %26 = load i64, ptr %25, align 8
  %27 = getelementptr inbounds i8, ptr %13, i64 %26
  %28 = getelementptr inbounds nuw i8, ptr %27, i64 240
  %29 = load ptr, ptr %28, align 8, !tbaa !95
  %.not.i.i.i.i = icmp eq ptr %29, null
  br i1 %.not.i.i.i.i, label %30, label %_ZSt13__check_facetISt5ctypeIcEERKT_PS3_.exit.i.i.i

30:                                               ; preds = %_ZStlsISt11char_traitsIcEERSt13basic_ostreamIcT_ES5_c.exit
  call void @_ZSt16__throw_bad_castv() #24
  unreachable

_ZSt13__check_facetISt5ctypeIcEERKT_PS3_.exit.i.i.i: ; preds = %_ZStlsISt11char_traitsIcEERSt13basic_ostreamIcT_ES5_c.exit
  %31 = getelementptr inbounds nuw i8, ptr %29, i64 56
  %32 = load i8, ptr %31, align 8, !tbaa !108
  %.not.i1.i.i.i = icmp eq i8 %32, 0
  br i1 %.not.i1.i.i.i, label %36, label %33

33:                                               ; preds = %_ZSt13__check_facetISt5ctypeIcEERKT_PS3_.exit.i.i.i
  %34 = getelementptr inbounds nuw i8, ptr %29, i64 67
  %35 = load i8, ptr %34, align 1, !tbaa !14
  br label %_ZN14cmConfigureLog7EndLineEv.exit

36:                                               ; preds = %_ZSt13__check_facetISt5ctypeIcEERKT_PS3_.exit.i.i.i
  call void @_ZNKSt5ctypeIcE13_M_widen_initEv(ptr noundef nonnull align 8 dereferenceable(570) %29)
  %37 = load ptr, ptr %29, align 8, !tbaa !52
  %38 = getelementptr inbounds nuw i8, ptr %37, i64 48
  %39 = load ptr, ptr %38, align 8
  %40 = call noundef signext i8 %39(ptr noundef nonnull align 8 dereferenceable(570) %29, i8 noundef signext 10)
  br label %_ZN14cmConfigureLog7EndLineEv.exit

_ZN14cmConfigureLog7EndLineEv.exit:               ; preds = %33, %36
  %.0.i.i.i.i = phi i8 [ %35, %33 ], [ %40, %36 ]
  %41 = call noundef nonnull align 8 dereferenceable(8) ptr @_ZNSo3putEc(ptr noundef nonnull align 8 dereferenceable(8) %13, i8 noundef signext %.0.i.i.i.i)
  %42 = call noundef nonnull align 8 dereferenceable(8) ptr @_ZNSo5flushEv(ptr noundef nonnull align 8 dereferenceable(8) %41)
  %43 = load i32, ptr %5, align 8, !tbaa !20
  %44 = add i32 %43, 1
  store i32 %44, ptr %5, align 8, !tbaa !20
  call void @_ZN14cmConfigureLog10WriteValueESt17basic_string_viewIcSt11char_traitsIcEERKNSt7__cxx1112basic_stringIcS2_SaIcEEE(ptr noundef nonnull align 8 dereferenceable(584) %0, i64 4, ptr nonnull @.str.10, ptr noundef nonnull align 8 dereferenceable(32) %1)
  call void @_ZN14cmConfigureLog14WriteBacktraceERK10cmMakefile(ptr noundef nonnull align 8 dereferenceable(584) %0, ptr noundef nonnull align 8 dereferenceable(2880) %2)
  call void @_ZN14cmConfigureLog11WriteChecksERK10cmMakefile(ptr noundef nonnull align 8 dereferenceable(584) %0, ptr noundef nonnull align 8 dereferenceable(2880) %2)
  ret void
}